; Function Attrs: mustprogress nounwind uwtable
define internal void @_ZN4node9inspector12_GLOBAL__N_120JSBindingsConnectionINS1_15LocalConnectionEE25JSBindingsSessionDelegateD2Ev(ptr nocapture noundef nonnull align 8 dereferenceable(24) %this) unnamed_addr #3 align 2 {
entry:
  store ptr getelementptr inbounds ({ [5 x ptr] }, ptr @_ZTVN4node9inspector12_GLOBAL__N_120JSBindingsConnectionINS1_15LocalConnectionEE25JSBindingsSessionDelegateE, i64 0, i32 0, i64 2), ptr %this, align 8
  %connection_ = getelementptr inbounds i8, ptr %this, i64 16
  %connection_.val = load ptr, ptr %connection_, align 8
  %cmp.not.i = icmp eq ptr %connection_.val, null
  br i1 %cmp.not.i, label %_ZN4node17BaseObjectPtrImplINS_9inspector12_GLOBAL__N_120JSBindingsConnectionINS2_15LocalConnectionEEELb0EED2Ev.exit, label %if.then.i

if.then.i:                                        ; preds = %entry
  tail call void @_ZN4node10BaseObject17decrease_refcountEv(ptr noundef nonnull align 8 dereferenceable(32) %connection_.val) #21
  br label %_ZN4node17BaseObjectPtrImplINS_9inspector12_GLOBAL__N_120JSBindingsConnectionINS2_15LocalConnectionEEELb0EED2Ev.exit

_ZN4node17BaseObjectPtrImplINS_9inspector12_GLOBAL__N_120JSBindingsConnectionINS2_15LocalConnectionEEELb0EED2Ev.exit: ; preds = %entry, %if.then.i
  ret void
}